; Function Attrs: nounwind uwtable
define dso_local void @llvm_set_weak(ptr nocapture noundef readonly %0, ptr noundef %1) local_unnamed_addr #0 {
  tail call void @LLVMSetLinkage(ptr noundef %1, i32 noundef 5) #10
  tail call void @LLVMSetVisibility(ptr noundef %1, i32 noundef 0) #10
  %3 = load i16, ptr getelementptr inbounds (%struct.PlatformTarget, ptr @platform_target, i64 0, i32 15), align 8
  %4 = and i16 %3, 8192
  %.not.i = icmp eq i16 %4, 0
  br i1 %.not.i, label %llvm_set_comdat.exit, label %5

5:                                                ; preds = %2
  %6 = getelementptr inbounds i8, ptr %0, i64 8
  %7 = load ptr, ptr %6, align 8
  %8 = tail call ptr @LLVMGetValueName(ptr noundef %1) #10
  %9 = tail call ptr @LLVMGetOrInsertComdat(ptr noundef %7, ptr noundef %8) #10
  tail call void @LLVMSetComdatSelectionKind(ptr noundef %9, i32 noundef 0) #10
  tail call void @LLVMSetComdat(ptr noundef %1, ptr noundef %9) #10
  br label %llvm_set_comdat.exit

llvm_set_comdat.exit:                             ; preds = %2, %5
  ret void
}